target datalayout = "e-m:e-p270:32:32-p271:32:32-p272:64:64-i64:64-i128:128-f80:128-n8:16:32:64-S128"
target triple = "x86_64-pc-linux-gnu"

@iv = internal global [32 x i8] zeroinitializer, align 16

; Function Attrs: nounwind uwtable
define internal ptr @init_evp_cipher_ctx(ptr noundef %0, ptr noundef %1, i32 noundef %2) #0 {
  %4 = alloca ptr, align 8
  %5 = alloca ptr, align 8
  %6 = alloca ptr, align 8
  %7 = alloca i32, align 4
  %8 = alloca ptr, align 8
  %9 = alloca ptr, align 8
  %10 = alloca i32, align 4
  store ptr %0, ptr %5, align 8, !tbaa !39
  store ptr %1, ptr %6, align 8, !tbaa !39
  store i32 %2, ptr %7, align 4, !tbaa !4
  call void @llvm.lifetime.start.p0(i64 8, ptr %8) #11
  store ptr null, ptr %8, align 8, !tbaa !219
  call void @llvm.lifetime.start.p0(i64 8, ptr %9) #11
  store ptr null, ptr %9, align 8, !tbaa !40
  %11 = load ptr, ptr %5, align 8, !tbaa !39
  %12 = call i32 @opt_cipher_silent(ptr noundef %11, ptr noundef %9)
  %13 = icmp ne i32 %12, 0
  br i1 %13, label %15, label %14

14:                                               ; preds = %3
  store ptr null, ptr %4, align 8
  store i32 1, ptr %10, align 4
  br label %44

15:                                               ; preds = %3
  %16 = call ptr @EVP_CIPHER_CTX_new()
  store ptr %16, ptr %8, align 8, !tbaa !219
  %17 = icmp eq ptr %16, null
  br i1 %17, label %18, label %19

18:                                               ; preds = %15
  br label %41

19:                                               ; preds = %15
  %20 = load ptr, ptr %8, align 8, !tbaa !219
  %21 = load ptr, ptr %9, align 8, !tbaa !40
  %22 = call i32 @EVP_CipherInit_ex(ptr noundef %20, ptr noundef %21, ptr noundef null, ptr noundef null, ptr noundef null, i32 noundef 1)
  %23 = icmp ne i32 %22, 0
  br i1 %23, label %26, label %24

24:                                               ; preds = %19
  %25 = load ptr, ptr %8, align 8, !tbaa !219
  call void @EVP_CIPHER_CTX_free(ptr noundef %25)
  store ptr null, ptr %8, align 8, !tbaa !219
  br label %41

26:                                               ; preds = %19
  %27 = load ptr, ptr %8, align 8, !tbaa !219
  %28 = load i32, ptr %7, align 4, !tbaa !4
  %29 = call i32 @EVP_CIPHER_CTX_set_key_length(ptr noundef %27, i32 noundef %28)
  %30 = icmp sle i32 %29, 0
  br i1 %30, label %31, label %33

31:                                               ; preds = %26
  %32 = load ptr, ptr %8, align 8, !tbaa !219
  call void @EVP_CIPHER_CTX_free(ptr noundef %32)
  store ptr null, ptr %8, align 8, !tbaa !219
  br label %41

33:                                               ; preds = %26
  %34 = load ptr, ptr %8, align 8, !tbaa !219
  %35 = load ptr, ptr %6, align 8, !tbaa !39
  %36 = call i32 @EVP_CipherInit_ex(ptr noundef %34, ptr noundef null, ptr noundef null, ptr noundef %35, ptr noundef @iv, i32 noundef 1)
  %37 = icmp ne i32 %36, 0
  br i1 %37, label %40, label %38

38:                                               ; preds = %33
  %39 = load ptr, ptr %8, align 8, !tbaa !219
  call void @EVP_CIPHER_CTX_free(ptr noundef %39)
  store ptr null, ptr %8, align 8, !tbaa !219
  br label %41

40:                                               ; preds = %33
  br label %41

41:                                               ; preds = %40, %38, %31, %24, %18
  %42 = load ptr, ptr %9, align 8, !tbaa !40
  call void @EVP_CIPHER_free(ptr noundef %42)
  %43 = load ptr, ptr %8, align 8, !tbaa !219
  store ptr %43, ptr %4, align 8
  store i32 1, ptr %10, align 4
  br label %44

44:                                               ; preds = %41, %14
  call void @llvm.lifetime.end.p0(i64 8, ptr %9) #11
  call void @llvm.lifetime.end.p0(i64 8, ptr %8) #11
  %45 = load ptr, ptr %4, align 8
  ret ptr %45
}