; Function Attrs: nounwind uwtable
define internal fastcc ptr @init_evp_cipher_ctx(ptr noundef %0, ptr noundef %1, i32 noundef range(i32 8, 33) %2) unnamed_addr #0 {
  %4 = alloca ptr, align 8
  call void @llvm.lifetime.start.p0(i64 8, ptr nonnull %4) #14
  store ptr null, ptr %4, align 8, !tbaa !9
  %5 = call i32 @opt_cipher_silent(ptr noundef %0, ptr noundef nonnull %4) #14
  %.not = icmp eq i32 %5, 0
  br i1 %.not, label %19, label %6

6:                                                ; preds = %3
  %7 = call ptr @EVP_CIPHER_CTX_new() #14
  %8 = icmp eq ptr %7, null
  br i1 %8, label %17, label %9

9:                                                ; preds = %6
  %10 = load ptr, ptr %4, align 8, !tbaa !9
  %11 = call i32 @EVP_CipherInit_ex(ptr noundef nonnull %7, ptr noundef %10, ptr noundef null, ptr noundef null, ptr noundef null, i32 noundef 1) #14
  %.not12 = icmp eq i32 %11, 0
  br i1 %.not12, label %.sink.split, label %12

12:                                               ; preds = %9
  %13 = call i32 @EVP_CIPHER_CTX_set_key_length(ptr noundef nonnull %7, i32 noundef %2) #14
  %14 = icmp slt i32 %13, 1
  br i1 %14, label %.sink.split, label %15

15:                                               ; preds = %12
  %16 = call i32 @EVP_CipherInit_ex(ptr noundef nonnull %7, ptr noundef null, ptr noundef null, ptr noundef %1, ptr noundef nonnull @iv, i32 noundef 1) #14
  %.not13 = icmp eq i32 %16, 0
  br i1 %.not13, label %.sink.split, label %17

.sink.split:                                      ; preds = %15, %12, %9
  call void @EVP_CIPHER_CTX_free(ptr noundef nonnull %7) #14
  br label %17

17:                                               ; preds = %.sink.split, %15, %6
  %.0 = phi ptr [ null, %6 ], [ %7, %15 ], [ null, %.sink.split ]
  %18 = load ptr, ptr %4, align 8, !tbaa !9
  call void @EVP_CIPHER_free(ptr noundef %18) #14
  br label %19

19:                                               ; preds = %3, %17
  %.010 = phi ptr [ %.0, %17 ], [ null, %3 ]
  call void @llvm.lifetime.end.p0(i64 8, ptr nonnull %4) #14
  ret ptr %.010
}